target datalayout = "e-m:e-p270:32:32-p271:32:32-p272:64:64-i64:64-i128:128-f80:128-n8:16:32:64-S128"
target triple = "x86_64-pc-linux-gnu"

; Function Attrs: nounwind uwtable
define void @Map_CalculatePhase6(ptr noundef %0, i32 noundef %1, ptr noundef %2, i32 noundef %3, ptr noundef %4) #0 {
  %6 = alloca ptr, align 8
  %7 = alloca i32, align 4
  %8 = alloca ptr, align 8
  %9 = alloca i32, align 4
  %10 = alloca ptr, align 8
  %11 = alloca i32, align 4
  %12 = alloca i32, align 4
  %13 = alloca i32, align 4
  %14 = alloca i32, align 4
  store ptr %0, ptr %6, align 8, !tbaa !38
  store i32 %1, ptr %7, align 4, !tbaa !10
  store ptr %2, ptr %8, align 8, !tbaa !38
  store i32 %3, ptr %9, align 4, !tbaa !10
  store ptr %4, ptr %10, align 8, !tbaa !38
  call void @llvm.lifetime.start.p0(i64 4, ptr %11) #9
  call void @llvm.lifetime.start.p0(i64 4, ptr %12) #9
  call void @llvm.lifetime.start.p0(i64 4, ptr %13) #9
  %15 = load ptr, ptr %8, align 8, !tbaa !38
  %16 = getelementptr inbounds i32, ptr %15, i64 0
  %17 = load i32, ptr %16, align 4, !tbaa !10
  %18 = load ptr, ptr %10, align 8, !tbaa !38
  %19 = getelementptr inbounds i32, ptr %18, i64 0
  store i32 %17, ptr %19, align 4, !tbaa !10
  %20 = load ptr, ptr %8, align 8, !tbaa !38
  %21 = getelementptr inbounds i32, ptr %20, i64 1
  %22 = load i32, ptr %21, align 4, !tbaa !10
  %23 = load ptr, ptr %10, align 8, !tbaa !38
  %24 = getelementptr inbounds i32, ptr %23, i64 1
  store i32 %22, ptr %24, align 4, !tbaa !10
  %25 = load i32, ptr %9, align 4, !tbaa !10
  %26 = icmp eq i32 %25, 0
  br i1 %26, label %27, label %28

27:                                               ; preds = %5
  store i32 1, ptr %14, align 4
  br label %118

28:                                               ; preds = %5
  store i32 0, ptr %12, align 4, !tbaa !10
  store i32 1, ptr %13, align 4, !tbaa !10
  br label %29

29:                                               ; preds = %112, %28
  %30 = load i32, ptr %12, align 4, !tbaa !10
  %31 = load i32, ptr %7, align 4, !tbaa !10
  %32 = icmp slt i32 %30, %31
  br i1 %32, label %33, label %117

33:                                               ; preds = %29
  %34 = load i32, ptr %9, align 4, !tbaa !10
  %35 = load i32, ptr %13, align 4, !tbaa !10
  %36 = and i32 %34, %35
  %37 = icmp ne i32 %36, 0
  br i1 %37, label %38, label %111

38:                                               ; preds = %33
  %39 = load i32, ptr %13, align 4, !tbaa !10
  %40 = icmp slt i32 %39, 32
  br i1 %40, label %41, label %98

41:                                               ; preds = %38
  %42 = load ptr, ptr %10, align 8, !tbaa !38
  %43 = getelementptr inbounds i32, ptr %42, i64 0
  %44 = load i32, ptr %43, align 4, !tbaa !10
  %45 = load ptr, ptr %6, align 8, !tbaa !38
  %46 = load i32, ptr %12, align 4, !tbaa !10
  %47 = sext i32 %46 to i64
  %48 = getelementptr inbounds [2 x i32], ptr %45, i64 %47
  %49 = getelementptr inbounds [2 x i32], ptr %48, i64 0, i64 0
  %50 = load i32, ptr %49, align 4, !tbaa !10
  %51 = xor i32 %50, -1
  %52 = and i32 %44, %51
  %53 = load i32, ptr %13, align 4, !tbaa !10
  %54 = shl i32 %52, %53
  %55 = load ptr, ptr %10, align 8, !tbaa !38
  %56 = getelementptr inbounds i32, ptr %55, i64 0
  %57 = load i32, ptr %56, align 4, !tbaa !10
  %58 = load ptr, ptr %6, align 8, !tbaa !38
  %59 = load i32, ptr %12, align 4, !tbaa !10
  %60 = sext i32 %59 to i64
  %61 = getelementptr inbounds [2 x i32], ptr %58, i64 %60
  %62 = getelementptr inbounds [2 x i32], ptr %61, i64 0, i64 0
  %63 = load i32, ptr %62, align 4, !tbaa !10
  %64 = and i32 %57, %63
  %65 = load i32, ptr %13, align 4, !tbaa !10
  %66 = lshr i32 %64, %65
  %67 = or i32 %54, %66
  %68 = load ptr, ptr %10, align 8, !tbaa !38
  %69 = getelementptr inbounds i32, ptr %68, i64 0
  store i32 %67, ptr %69, align 4, !tbaa !10
  %70 = load ptr, ptr %10, align 8, !tbaa !38
  %71 = getelementptr inbounds i32, ptr %70, i64 1
  %72 = load i32, ptr %71, align 4, !tbaa !10
  %73 = load ptr, ptr %6, align 8, !tbaa !38
  %74 = load i32, ptr %12, align 4, !tbaa !10
  %75 = sext i32 %74 to i64
  %76 = getelementptr inbounds [2 x i32], ptr %73, i64 %75
  %77 = getelementptr inbounds [2 x i32], ptr %76, i64 0, i64 1
  %78 = load i32, ptr %77, align 4, !tbaa !10
  %79 = xor i32 %78, -1
  %80 = and i32 %72, %79
  %81 = load i32, ptr %13, align 4, !tbaa !10
  %82 = shl i32 %80, %81
  %83 = load ptr, ptr %10, align 8, !tbaa !38
  %84 = getelementptr inbounds i32, ptr %83, i64 1
  %85 = load i32, ptr %84, align 4, !tbaa !10
  %86 = load ptr, ptr %6, align 8, !tbaa !38
  %87 = load i32, ptr %12, align 4, !tbaa !10
  %88 = sext i32 %87 to i64
  %89 = getelementptr inbounds [2 x i32], ptr %86, i64 %88
  %90 = getelementptr inbounds [2 x i32], ptr %89, i64 0, i64 1
  %91 = load i32, ptr %90, align 4, !tbaa !10
  %92 = and i32 %85, %91
  %93 = load i32, ptr %13, align 4, !tbaa !10
  %94 = lshr i32 %92, %93
  %95 = or i32 %82, %94
  %96 = load ptr, ptr %10, align 8, !tbaa !38
  %97 = getelementptr inbounds i32, ptr %96, i64 1
  store i32 %95, ptr %97, align 4, !tbaa !10
  br label %110

98:                                               ; preds = %38
  %99 = load ptr, ptr %10, align 8, !tbaa !38
  %100 = getelementptr inbounds i32, ptr %99, i64 0
  %101 = load i32, ptr %100, align 4, !tbaa !10
  store i32 %101, ptr %11, align 4, !tbaa !10
  %102 = load ptr, ptr %10, align 8, !tbaa !38
  %103 = getelementptr inbounds i32, ptr %102, i64 1
  %104 = load i32, ptr %103, align 4, !tbaa !10
  %105 = load ptr, ptr %10, align 8, !tbaa !38
  %106 = getelementptr inbounds i32, ptr %105, i64 0
  store i32 %104, ptr %106, align 4, !tbaa !10
  %107 = load i32, ptr %11, align 4, !tbaa !10
  %108 = load ptr, ptr %10, align 8, !tbaa !38
  %109 = getelementptr inbounds i32, ptr %108, i64 1
  store i32 %107, ptr %109, align 4, !tbaa !10
  br label %110

110:                                              ; preds = %98, %41
  br label %111

111:                                              ; preds = %110, %33
  br label %112

112:                                              ; preds = %111
  %113 = load i32, ptr %12, align 4, !tbaa !10
  %114 = add nsw i32 %113, 1
  store i32 %114, ptr %12, align 4, !tbaa !10
  %115 = load i32, ptr %13, align 4, !tbaa !10
  %116 = shl i32 %115, 1
  store i32 %116, ptr %13, align 4, !tbaa !10
  br label %29, !llvm.loop !88

117:                                              ; preds = %29
  store i32 0, ptr %14, align 4
  br label %118

118:                                              ; preds = %117, %27
  call void @llvm.lifetime.end.p0(i64 4, ptr %13) #9
  call void @llvm.lifetime.end.p0(i64 4, ptr %12) #9
  call void @llvm.lifetime.end.p0(i64 4, ptr %11) #9
  %119 = load i32, ptr %14, align 4
  switch i32 %119, label %121 [
    i32 0, label %120
    i32 1, label %120
  ]

120:                                              ; preds = %118, %118
  ret void

121:                                              ; preds = %118
  unreachable
}