; Function Attrs: nofree norecurse nosync nounwind memory(argmem: readwrite) uwtable
define void @Map_CalculatePhase6(ptr noundef readonly captures(none) %0, i32 noundef %1, ptr noundef readonly captures(none) %2, i32 noundef %3, ptr noundef writeonly captures(none) initializes((0, 8)) %4) local_unnamed_addr #13 {
  %6 = load i32, ptr %2, align 4, !tbaa !24
  store i32 %6, ptr %4, align 4, !tbaa !24
  %7 = getelementptr inbounds nuw i8, ptr %2, i64 4
  %8 = load i32, ptr %7, align 4, !tbaa !24
  %9 = getelementptr inbounds nuw i8, ptr %4, i64 4
  store i32 %8, ptr %9, align 4, !tbaa !24
  %10 = icmp ne i32 %3, 0
  %11 = icmp sgt i32 %1, 0
  %or.cond = and i1 %10, %11
  br i1 %or.cond, label %.lr.ph.preheader, label %.loopexit

.lr.ph.preheader:                                 ; preds = %5
  %wide.trip.count = zext nneg i32 %1 to i64
  br label %.lr.ph

.lr.ph:                                           ; preds = %.lr.ph.preheader, %35
  %12 = phi i32 [ %8, %.lr.ph.preheader ], [ %36, %35 ]
  %13 = phi i32 [ %6, %.lr.ph.preheader ], [ %37, %35 ]
  %indvars.iv = phi i64 [ 0, %.lr.ph.preheader ], [ %indvars.iv.next, %35 ]
  %.037 = phi i32 [ 1, %.lr.ph.preheader ], [ %38, %35 ]
  %14 = and i32 %.037, %3
  %.not = icmp eq i32 %14, 0
  br i1 %.not, label %35, label %15

15:                                               ; preds = %.lr.ph
  %16 = icmp slt i32 %.037, 32
  br i1 %16, label %17, label %34

17:                                               ; preds = %15
  %18 = getelementptr inbounds nuw [2 x i32], ptr %0, i64 %indvars.iv
  %19 = load i32, ptr %18, align 4, !tbaa !24
  %20 = xor i32 %19, -1
  %21 = and i32 %13, %20
  %22 = shl i32 %21, %.037
  %23 = and i32 %19, %13
  %24 = lshr i32 %23, %.037
  %25 = or i32 %22, %24
  store i32 %25, ptr %4, align 4, !tbaa !24
  %26 = getelementptr inbounds nuw i8, ptr %18, i64 4
  %27 = load i32, ptr %26, align 4, !tbaa !24
  %28 = xor i32 %27, -1
  %29 = and i32 %12, %28
  %30 = shl i32 %29, %.037
  %31 = and i32 %27, %12
  %32 = lshr i32 %31, %.037
  %33 = or i32 %30, %32
  br label %.sink.split

34:                                               ; preds = %15
  store i32 %12, ptr %4, align 4, !tbaa !24
  br label %.sink.split

.sink.split:                                      ; preds = %17, %34
  %.sink = phi i32 [ %13, %34 ], [ %33, %17 ]
  %.ph39 = phi i32 [ %12, %34 ], [ %25, %17 ]
  store i32 %.sink, ptr %9, align 4, !tbaa !24
  br label %35

35:                                               ; preds = %.sink.split, %.lr.ph
  %36 = phi i32 [ %12, %.lr.ph ], [ %.sink, %.sink.split ]
  %37 = phi i32 [ %13, %.lr.ph ], [ %.ph39, %.sink.split ]
  %indvars.iv.next = add nuw nsw i64 %indvars.iv, 1
  %38 = shl i32 %.037, 1
  %exitcond.not = icmp eq i64 %indvars.iv.next, %wide.trip.count
  br i1 %exitcond.not, label %.loopexit, label %.lr.ph, !llvm.loop !69

.loopexit:                                        ; preds = %35, %5
  ret void
}